; Function Attrs: mustprogress uwtable
define void @_ZN6icu_7722UnescapeTransliteratorC2ERKS0_(ptr noundef nonnull align 8 dereferenceable(96) %0, ptr noundef nonnull align 8 dereferenceable(96) %1) unnamed_addr #1 align 2 personality ptr @__gxx_personality_v0 {
  tail call void @_ZN6icu_7714TransliteratorC2ERKS0_(ptr noundef nonnull align 8 dereferenceable(84) %0, ptr noundef nonnull align 8 dereferenceable(84) %1)
  store ptr getelementptr inbounds nuw inrange(-16, 136) (i8, ptr @_ZTVN6icu_7722UnescapeTransliteratorE, i64 16), ptr %0, align 8, !tbaa !19
  %3 = getelementptr inbounds nuw i8, ptr %1, i64 88
  %4 = load ptr, ptr %3, align 8, !tbaa !25
  br label %5

5:                                                ; preds = %5, %2
  %indvars.iv.i = phi i64 [ %indvars.iv.next.i, %5 ], [ 0, %2 ]
  %6 = getelementptr inbounds nuw i16, ptr %4, i64 %indvars.iv.i
  %7 = load i16, ptr %6, align 2, !tbaa !21
  %.not.i = icmp eq i16 %7, -1
  %indvars.iv.next.i = add nuw nsw i64 %indvars.iv.i, 1
  br i1 %.not.i, label %8, label %5, !llvm.loop !23

8:                                                ; preds = %5
  %9 = shl nuw i64 %indvars.iv.i, 1
  %10 = add i64 %9, 2
  %11 = and i64 %10, 4294967294
  %12 = invoke noalias ptr @uprv_malloc_77(i64 noundef %11) #14
          to label %.noexc unwind label %15

.noexc:                                           ; preds = %8
  %.not10.i = icmp eq ptr %12, null
  br i1 %.not10.i, label %_ZN6icu_77L8copySpecEPKDs.exit, label %13

13:                                               ; preds = %.noexc
  tail call void @llvm.memcpy.p0.p0.i64(ptr nonnull align 2 %12, ptr nonnull readonly align 2 %4, i64 %11, i1 false)
  br label %_ZN6icu_77L8copySpecEPKDs.exit

_ZN6icu_77L8copySpecEPKDs.exit:                   ; preds = %13, %.noexc
  %14 = getelementptr inbounds nuw i8, ptr %0, i64 88
  store ptr %12, ptr %14, align 8, !tbaa !25
  ret void

15:                                               ; preds = %8
  %16 = landingpad { ptr, i32 }
          cleanup
  tail call void @_ZN6icu_7714TransliteratorD2Ev(ptr noundef nonnull align 8 dereferenceable(84) %0) #13
  resume { ptr, i32 } %16
}